target datalayout = "e-m:e-p270:32:32-p271:32:32-p272:64:64-i64:64-i128:128-f80:128-n8:16:32:64-S128"
target triple = "x86_64-unknown-linux-gnu"

%"struct.OpenColorIO_v2_4dev::GenericImageDesc" = type <{ i64, i64, i64, i64, ptr, ptr, ptr, ptr, %"class.std::shared_ptr", i8, i8, [6 x i8] }>
%"class.std::shared_ptr" = type { %"class.std::__shared_ptr" }
%"class.std::__shared_ptr" = type { ptr, %"class.std::__shared_count" }
%"class.std::__shared_count" = type { ptr }

; Function Attrs: mustprogress nounwind uwtable
define hidden noundef zeroext i1 @_ZNK19OpenColorIO_v2_4dev16GenericImageDesc17isPackedFloatRGBAEv(ptr noundef nonnull align 8 dereferenceable(82) %this) #6 align 2 {
entry:
  %this.addr = alloca ptr, align 8
  store ptr %this, ptr %this.addr, align 8
  %this1 = load ptr, ptr %this.addr, align 8
  %m_isFloat = getelementptr inbounds %"struct.OpenColorIO_v2_4dev::GenericImageDesc", ptr %this1, i32 0, i32 10
  %0 = load i8, ptr %m_isFloat, align 1
  %tobool = trunc i8 %0 to i1
  br i1 %tobool, label %land.rhs, label %land.end

land.rhs:                                         ; preds = %entry
  %m_isRGBAPacked = getelementptr inbounds %"struct.OpenColorIO_v2_4dev::GenericImageDesc", ptr %this1, i32 0, i32 9
  %1 = load i8, ptr %m_isRGBAPacked, align 8
  %tobool2 = trunc i8 %1 to i1
  br label %land.end

land.end:                                         ; preds = %land.rhs, %entry
  %2 = phi i1 [ false, %entry ], [ %tobool2, %land.rhs ]
  ret i1 %2
}