; Function Attrs: mustprogress nofree norecurse nosync nounwind willreturn memory(argmem: read) uwtable
define hidden noundef zeroext i1 @_ZNK19OpenColorIO_v2_4dev16GenericImageDesc17isPackedFloatRGBAEv(ptr nocapture noundef nonnull readonly align 8 dereferenceable(82) %this) local_unnamed_addr #10 align 2 {
entry:
  %m_isRGBAPacked = getelementptr inbounds i8, ptr %this, i64 80
  %0 = load <2 x i8>, ptr %m_isRGBAPacked, align 8
  %1 = trunc <2 x i8> %0 to <2 x i1>
  %2 = extractelement <2 x i1> %1, i64 0
  %3 = extractelement <2 x i1> %1, i64 1
  %4 = select i1 %3, i1 %2, i1 false
  ret i1 %4
}